(dp0
S'kunfav'
p1
(lp2
F-2.25
aF0.24509719689594242
acnumpy.core.multiarray
scalar
p3
(cnumpy
dtype
p4
(S'f8'
p5
I0
I1
tp6
Rp7
(I3
S'<'
p8
NNNI-1
I-1
I0
tp9
bS'\xaa\x15\x15:\r\xd0\xc0?'
p10
tp11
Rp12
asS'val'
p13
(lp14
F-2.25
aF0.3173285073593519
ag3
(g7
S'D\xe1q\x0e\x80\xef\xb0?'
p15
tp16
Rp17
asS'unfav'
p18
(lp19
F-2.25
aF0.2477450546581162
ag3
(g7
S'\xfe\xd9\xe3\xfa\x17\xe3\x91?'
p20
tp21
Rp22
asS'fav'
p23
(lp24
F-2.25
aF0.2466345341586078
ag3
(g7
S'<N\x87\x8dHM\x90?'
p25
tp26
Rp27
asS'kfav'
p28
(lp29
F-2.25
aF0.2496115690258771
ag3
(g7
S'\xdc\xe1Er\x1c\xf4\xc0?'
p30
tp31
Rp32
asS'sea'
p33
(lp34
F-2.25
aF0.30838621713239617
ag3
(g7
S'H\xd5L\xd1\rR\xcb?'
p35
tp36
Rp37
asS'gk0'
p38
(lp39
F-2.25
aF-0.18736379704259085
ag3
(g7
S'\xb6\x911\xefm4\xa4?'
p40
tp41
Rp42
as.