(dp0
S'Q0'
p1
(lp2
F3.25
aF2.078362976893821
acnumpy.core.multiarray
scalar
p3
(cnumpy
dtype
p4
(S'f8'
p5
I0
I1
tp6
Rp7
(I3
S'<'
p8
NNNI-1
I-1
I0
tp9
bS'\x15\xfbK\xff\x1b\\\x01@'
p10
tp11
Rp12
asS'kunfav'
p13
(lp14
F3.25
aF0.2369952061163768
ag3
(g7
S';\xd8\x0e\xa53R\xc1?'
p15
tp16
Rp17
asS'sea'
p18
(lp19
F3.25
aF0.39503185535956825
ag3
(g7
S'4\xfd\x95\x1b\xcf\xf1\xcc?'
p20
tp21
Rp22
asS'val'
p23
(lp24
F3.25
aF0.21180403772164338
ag3
(g7
S'\xf2\xf5\x85S\xa1\x05\xb1?'
p25
tp26
Rp27
asS'gk0'
p28
(lp29
F3.25
aF-0.07969051488522569
ag3
(g7
S'^$\xb81\x8e\x9f\x9f?'
p30
tp31
Rp32
asS'unfav'
p33
(lp34
F3.25
aF0.18284334873860505
ag3
(g7
S'\x19\xce\x1fsJ \x8a?'
p35
tp36
Rp37
asS'fav'
p38
(lp39
F3.25
aF0.19925898108122517
ag3
(g7
S'\x9c\x10\xe9\x1e}\xf6\x84?'
p40
tp41
Rp42
asS'kfav'
p43
(lp44
F3.25
aF0.2514228920810534
ag3
(g7
S'tqn\xe5D\xec\xc0?'
p45
tp46
Rp47
as.