(dp0
S'Q0'
p1
(lp2
F2.0
aF1.5031261111800287
acnumpy.core.multiarray
scalar
p3
(cnumpy
dtype
p4
(S'f8'
p5
I0
I1
tp6
Rp7
(I3
S'<'
p8
NNNI-1
I-1
I0
tp9
bS'*Q<V7\xeb\xf9?'
p10
tp11
Rp12
asS'kunfav'
p13
(lp14
F2.0
aF0.16383944351098886
ag3
(g7
S'\x9e\xdc\xe9PY\xeb\x92?'
p15
tp16
Rp17
asS'sea'
p18
(lp19
F2.0
aF0.6058384747703178
ag3
(g7
S'\xd16\x01\x88\x0c-\xac?'
p20
tp21
Rp22
asS'val'
p23
(lp24
F2.0
aF0.5045393710777084
ag3
(g7
S'>\xe6\x06I\xe0O\x90?'
p25
tp26
Rp27
asS'gk0'
p28
(lp29
F2.0
aF-0.11672932637098384
ag3
(g7
S'\xb6\xdc\xde\xd5\x82\xc6v?'
p30
tp31
Rp32
asS'unfav'
p33
(lp34
F2.0
aF0.14856698387271836
ag3
(g7
S'\xba\x0c!\xfa\xc5\x86l?'
p35
tp36
Rp37
asS'fav'
p38
(lp39
F2.0
aF0.12576640972664271
ag3
(g7
S'h\x8e!\x02\x8dZb?'
p40
tp41
Rp42
asS'kfav'
p43
(lp44
F2.0
aF0.13286000953314137
ag3
(g7
S'\xd4\xc1[\x858p{?'
p45
tp46
Rp47
as.