(dp0
S'kunfav'
p1
(lp2
F1.75
aF0.20107330522942934
acnumpy.core.multiarray
scalar
p3
(cnumpy
dtype
p4
(S'f8'
p5
I0
I1
tp6
Rp7
(I3
S'<'
p8
NNNI-1
I-1
I0
tp9
bS'\xe1N\xb7\xe2\xe0H\x93?'
p10
tp11
Rp12
asS'val'
p13
(lp14
F1.75
aF0.5334778713407615
ag3
(g7
S'p3\x83e\x80n\x90?'
p15
tp16
Rp17
asS'unfav'
p18
(lp19
F1.75
aF0.14574938677160698
ag3
(g7
S'^\x0ed\xf8\xa9\x9cg?'
p20
tp21
Rp22
asS'fav'
p23
(lp24
F1.75
aF0.12211740331660724
ag3
(g7
S'\xe4d\xac\xdd 3a?'
p25
tp26
Rp27
asS'kfav'
p28
(lp29
F1.75
aF0.127966250455823
ag3
(g7
S'i\x00:7l y?'
p30
tp31
Rp32
asS'sea'
p33
(lp34
F1.75
aF0.5998925912901409
ag3
(g7
S'i\x81\xb2\x07G\x02\xab?'
p35
tp36
Rp37
asS'gk0'
p38
(lp39
F1.75
aF-0.27088347546721175
ag3
(g7
S'\x07\x1c%\xa79\xacx?'
p40
tp41
Rp42
as.