(dp0
S'Q0'
p1
(lp2
F2.0
aF1.8565308251567383
acnumpy.core.multiarray
scalar
p3
(cnumpy
dtype
p4
(S'f8'
p5
I0
I1
tp6
Rp7
(I3
S'<'
p8
NNNI-1
I-1
I0
tp9
bS"_'\xc2\xdeF\x9b\xfe?"
p10
tp11
Rp12
asS'kunfav'
p13
(lp14
F2.0
aF0.13252844445885045
ag3
(g7
S'i\x11Z\xb2\x11\xd2\x88?'
p15
tp16
Rp17
asS'sea'
p18
(lp19
F2.0
aF0.45957568332017174
ag3
(g7
S'\x07b\xaa~"\xbc\xbc?'
p20
tp21
Rp22
asS'val'
p23
(lp24
F2.0
aF0.27020360993230386
ag3
(g7
S'>\xca,6s\xe8\xa2?'
p25
tp26
Rp27
asS'gk0'
p28
(lp29
F2.0
aF-0.0536827695711089
ag3
(g7
S':\xb6\xb6\xb8\xafB\x8f?'
p30
tp31
Rp32
asS'unfav'
p33
(lp34
F2.0
aF0.2064002235815586
ag3
(g7
S'\xa0\xb3\xf4\xb3\xa6\xcdy?'
p35
tp36
Rp37
asS'fav'
p38
(lp39
F2.0
aF0.21911605503665177
ag3
(g7
S'l\xb1g\x88\xb9\xc3u?'
p40
tp41
Rp42
asS'kfav'
p43
(lp44
F2.0
aF0.24706691179921067
ag3
(g7
S'$\xb0\x93\x84o\xda\x83?'
p45
tp46
Rp47
as.