(dp0
S'Q0'
p1
(lp2
F2.25
aF1.8400816740965358
acnumpy.core.multiarray
scalar
p3
(cnumpy
dtype
p4
(S'f8'
p5
I0
I1
tp6
Rp7
(I3
S'<'
p8
NNNI-1
I-1
I0
tp9
bS'>\x0f7\x02\xcar\xfe?'
p10
tp11
Rp12
asS'kunfav'
p13
(lp14
F2.25
aF0.11869085596062383
ag3
(g7
S'm\x11\xa4\xc4/\xd9\x88?'
p15
tp16
Rp17
asS'sea'
p18
(lp19
F2.25
aF0.5031135573312852
ag3
(g7
S'\xa0\xd6\xc2ahP\xbc?'
p20
tp21
Rp22
asS'val'
p23
(lp24
F2.25
aF0.27319798761900377
ag3
(g7
S' \xbdn\xa4\xc6j\xa2?'
p25
tp26
Rp27
asS'gk0'
p28
(lp29
F2.25
aF-0.060451586241389035
ag3
(g7
S'\xd6&\xc6\xdd\x1cs\x8d?'
p30
tp31
Rp32
asS'unfav'
p33
(lp34
F2.25
aF0.20532983643345426
ag3
(g7
S'&\xef\xd7\x02i\xaby?'
p35
tp36
Rp37
asS'fav'
p38
(lp39
F2.25
aF0.21843362595814436
ag3
(g7
S'I\xa7y\xf9+\xefu?'
p40
tp41
Rp42
asS'kfav'
p43
(lp44
F2.25
aF0.24806255422827916
ag3
(g7
S'\xc4-\xab\x12\x1e0\x86?'
p45
tp46
Rp47
as.