(dp0
S'kunfav'
p1
(lp2
F2.75
aF0.15811010732106848
acnumpy.core.multiarray
scalar
p3
(cnumpy
dtype
p4
(S'f8'
p5
I0
I1
tp6
Rp7
(I3
S'<'
p8
NNNI-1
I-1
I0
tp9
bS'\x11I\xf7\xd6\xa8\x1b\xa2?'
p10
tp11
Rp12
asS'val'
p13
(lp14
F2.75
aF0.32764374572591126
ag3
(g7
S'c\xa0\xa1\xaf6\xc9\x9b?'
p15
tp16
Rp17
asS'unfav'
p18
(lp19
F2.75
aF0.1978766892989254
ag3
(g7
S'\xae)\xc9tl\xcfw?'
p20
tp21
Rp22
asS'fav'
p23
(lp24
F2.75
aF0.2085924229079545
ag3
(g7
S'[\x0b&Qr\x0es?'
p25
tp26
Rp27
asS'kfav'
p28
(lp29
F2.75
aF0.25471837715372725
ag3
(g7
S'<\n\xd6\x19\x16l\x8a?'
p30
tp31
Rp32
asS'sea'
p33
(lp34
F2.75
aF0.2642197155416903
ag3
(g7
S'\x9e(\r/8{\xb7?'
p35
tp36
Rp37
asS'gk0'
p38
(lp39
F2.75
aF-0.24367885956330348
ag3
(g7
S'\x03\xe1\xbb\xc5g\xcb\x88?'
p40
tp41
Rp42
as.