(dp0
S'kunfav'
p1
(lp2
F-1.75
aF0.1923713479273175
acnumpy.core.multiarray
scalar
p3
(cnumpy
dtype
p4
(S'f8'
p5
I0
I1
tp6
Rp7
(I3
S'<'
p8
NNNI-1
I-1
I0
tp9
bS'\xfa\xf0g\xe1\xf7\xf8\xc0?'
p10
tp11
Rp12
asS'val'
p13
(lp14
F-1.75
aF0.34732317637682225
ag3
(g7
S'!\xec\xd8v(V\xa4?'
p15
tp16
Rp17
asS'unfav'
p18
(lp19
F-1.75
aF0.21259449022482801
ag3
(g7
S'\xacF\xed\xd8\xc6\xa8\x82?'
p20
tp21
Rp22
asS'fav'
p23
(lp24
F-1.75
aF0.21781621232593276
ag3
(g7
S'k\x04J\x19\xee\xfd\x80?'
p25
tp26
Rp27
asS'kfav'
p28
(lp29
F-1.75
aF0.15259869577433877
ag3
(g7
S'\xec=\xe1\x94\xa4\xef\xac?'
p30
tp31
Rp32
asS'sea'
p33
(lp34
F-1.75
aF0.14174915718534617
ag3
(g7
S'+\x1c8wO\xbc\xbf?'
p35
tp36
Rp37
asS'gk0'
p38
(lp39
F-1.75
aF-0.22058354320928814
ag3
(g7
S'\xafE\x1e\x1b\xfd\x87\x92?'
p40
tp41
Rp42
as.