(dp0
S'kunfav'
p1
(lp2
F-2.5
aF0.24364802857499585
acnumpy.core.multiarray
scalar
p3
(cnumpy
dtype
p4
(S'f8'
p5
I0
I1
tp6
Rp7
(I3
S'<'
p8
NNNI-1
I-1
I0
tp9
bS'L|@=\x01\xef\xc0?'
p10
tp11
Rp12
asS'val'
p13
(lp14
F-2.5
aF0.36466037025180553
ag3
(g7
S'\xfe-\xc9\xe1LP\xb7?'
p15
tp16
Rp17
asS'unfav'
p18
(lp19
F-2.5
aF0.22072964561604747
ag3
(g7
S'\x04\xa0\xb1\x1d2}\x9b?'
p20
tp21
Rp22
asS'fav'
p23
(lp24
F-2.5
aF0.2381608995633086
ag3
(g7
S'\r\xad%\xa14\xce\x99?'
p25
tp26
Rp27
asS'kfav'
p28
(lp29
F-2.5
aF0.24384710871109794
ag3
(g7
S'R\x19\xf8\xacP\xcc\xc0?'
p30
tp31
Rp32
asS'sea'
p33
(lp34
F-2.5
aF0.389556494648766
ag3
(g7
S'P6\xcc\xf1k\xe7\xcd?'
p35
tp36
Rp37
asS'gk0'
p38
(lp39
F-2.5
aF-0.2649841482419102
ag3
(g7
S'E\xdb\x02\xac\x97\x91\xaf?'
p40
tp41
Rp42
as.