(dp0
S'Q0'
p1
(lp2
F2.5
aF1.8244036025033115
acnumpy.core.multiarray
scalar
p3
(cnumpy
dtype
p4
(S'f8'
p5
I0
I1
tp6
Rp7
(I3
S'<'
p8
NNNI-1
I-1
I0
tp9
bS'Jh\xdcn"?\xfe?'
p10
tp11
Rp12
asS'kunfav'
p13
(lp14
F2.5
aF0.11043007656461974
ag3
(g7
S'~\x89\x92\xc7\xb2\xf0\x91?'
p15
tp16
Rp17
asS'sea'
p18
(lp19
F2.5
aF0.5209565061206963
ag3
(g7
S'-\x8aG\xc5\xb5\xe0\xc0?'
p20
tp21
Rp22
asS'val'
p23
(lp24
F2.5
aF0.2715033468707994
ag3
(g7
S'\xe8P:\xf0\xa7\x8e\xa3?'
p25
tp26
Rp27
asS'gk0'
p28
(lp29
F2.5
aF-0.06320875661465648
ag3
(g7
S'\xc84\xd4\xf2\xdd;\x90?'
p30
tp31
Rp32
asS'unfav'
p33
(lp34
F2.5
aF0.20463289911048546
ag3
(g7
S'\xaa)Rx4f|?'
p35
tp36
Rp37
asS'fav'
p38
(lp39
F2.5
aF0.21858609444021018
ag3
(g7
S'\x8c\x19\xff\xd7Few?'
p40
tp41
Rp42
asS'kfav'
p43
(lp44
F2.5
aF0.2553392413089772
ag3
(g7
S'\x8c\x9a\xf2\x84\xdd$\x8a?'
p45
tp46
Rp47
as.