(dp0
S'Q0'
p1
(lp2
F3.25
aF1.9116647146183596
acnumpy.core.multiarray
scalar
p3
(cnumpy
dtype
p4
(S'f8'
p5
I0
I1
tp6
Rp7
(I3
S'<'
p8
NNNI-1
I-1
I0
tp9
bS']_jq\xd4\xef\xff?'
p10
tp11
Rp12
asS'kunfav'
p13
(lp14
F3.25
aF0.2370471902595395
ag3
(g7
S' \xc8i\x96\x91\xce\xc0?'
p15
tp16
Rp17
asS'sea'
p18
(lp19
F3.25
aF0.3396187464415992
ag3
(g7
S'\xc4\xae\x96\x0c\xc5Y\xc3?'
p20
tp21
Rp22
asS'val'
p23
(lp24
F3.25
aF0.2167912092998508
ag3
(g7
S'\xf9)\xf9\x1f\x00\xb8\xa4?'
p25
tp26
Rp27
asS'gk0'
p28
(lp29
F3.25
aF-0.08104262336746587
ag3
(g7
S'\xb4y=\x00\xe5\xb8\x90?'
p30
tp31
Rp32
asS'unfav'
p33
(lp34
F3.25
aF0.22190155073601034
ag3
(g7
S'\x0fq5$\xac*\x7f?'
p35
tp36
Rp37
asS'fav'
p38
(lp39
F3.25
aF0.22867226348364367
ag3
(g7
S'\xdc\xab\xae\x03`\x19y?'
p40
tp41
Rp42
asS'kfav'
p43
(lp44
F3.25
aF0.23913090657609587
ag3
(g7
S'\x1f\x82\xcd[\xba!\xc1?'
p45
tp46
Rp47
as.