(dp0
S'kunfav'
p1
(lp2
F3.0
aF0.30959746047754416
acnumpy.core.multiarray
scalar
p3
(cnumpy
dtype
p4
(S'f8'
p5
I0
I1
tp6
Rp7
(I3
S'<'
p8
NNNI-1
I-1
I0
tp9
bS'\xb8\x15\x0e>1\xe5\xb7?'
p10
tp11
Rp12
asS'val'
p13
(lp14
F3.0
aF0.3211521136425189
ag3
(g7
S'\xb0\xae\xbfN:\xb7\x9a?'
p15
tp16
Rp17
asS'unfav'
p18
(lp19
F3.0
aF0.2006563482883911
ag3
(g7
S'\xef\xd33\x97D@w?'
p20
tp21
Rp22
asS'fav'
p23
(lp24
F3.0
aF0.20956745153100104
ag3
(g7
S'<\xdbBI2\x13r?'
p25
tp26
Rp27
asS'kfav'
p28
(lp29
F3.0
aF0.27731328680019773
ag3
(g7
S'\xbb~u\x89y\x83\x8f?'
p30
tp31
Rp32
asS'sea'
p33
(lp34
F3.0
aF0.21807544600673526
ag3
(g7
S'y\x12\xeb}&\xf1\xb4?'
p35
tp36
Rp37
asS'gk0'
p38
(lp39
F3.0
aF-0.2543717678480616
ag3
(g7
S'B\x19\xc5\x14\x82\x17\x88?'
p40
tp41
Rp42
as.