(dp0
S'kunfav'
p1
(lp2
F1.5
aF0.12417921291830884
acnumpy.core.multiarray
scalar
p3
(cnumpy
dtype
p4
(S'f8'
p5
I0
I1
tp6
Rp7
(I3
S'<'
p8
NNNI-1
I-1
I0
tp9
bS'\xfdD\xd3a8V\x85?'
p10
tp11
Rp12
asS'val'
p13
(lp14
F1.5
aF0.3341408816573362
ag3
(g7
S'\xca\xdfX1\xd2\x0c\x9b?'
p15
tp16
Rp17
asS'unfav'
p18
(lp19
F1.5
aF0.1942067480406596
ag3
(g7
S'\xb9U\rC\x1f#w?'
p20
tp21
Rp22
asS'fav'
p23
(lp24
F1.5
aF0.2066766935647081
ag3
(g7
S'\xfdv_\x1e\xcf~r?'
p25
tp26
Rp27
asS'kfav'
p28
(lp29
F1.5
aF0.2306381642165712
ag3
(g7
S'\xfab\xd4"\xd9U\x81?'
p30
tp31
Rp32
asS'sea'
p33
(lp34
F1.5
aF0.35001283571176317
ag3
(g7
S'\xc5\x7f\xc6\xb2HL\xb5?'
p35
tp36
Rp37
asS'gk0'
p38
(lp39
F1.5
aF-0.24057622054520933
ag3
(g7
S'f\xc2\xed\xf3\xd8q\x87?'
p40
tp41
Rp42
as.