(dp0
S'kunfav'
p1
(lp2
F2.0
aF0.12390490726941271
acnumpy.core.multiarray
scalar
p3
(cnumpy
dtype
p4
(S'f8'
p5
I0
I1
tp6
Rp7
(I3
S'<'
p8
NNNI-1
I-1
I0
tp9
bS'm\x88\xb9\x82\xcb\xbc\x84?'
p10
tp11
Rp12
asS'val'
p13
(lp14
F2.0
aF0.33435748171641144
ag3
(g7
S'Z\xf1rz\xb1\x02\x9a?'
p15
tp16
Rp17
asS'unfav'
p18
(lp19
F2.0
aF0.19399743425053048
ag3
(g7
S'\xf0\x15\xc7q\xa5\x12u?'
p20
tp21
Rp22
asS'fav'
p23
(lp24
F2.0
aF0.2065969916150211
ag3
(g7
S'\xc6\x88|\xdc\xd8Vr?'
p25
tp26
Rp27
asS'kfav'
p28
(lp29
F2.0
aF0.23074892407707212
ag3
(g7
S'S\xb9\x8c\xe6\xf9\x10\x81?'
p30
tp31
Rp32
asS'sea'
p33
(lp34
F2.0
aF0.35127007428896073
ag3
(g7
S'\x01!5v\x1eM\xb3?'
p35
tp36
Rp37
asS'gk0'
p38
(lp39
F2.0
aF-0.2416294195755734
ag3
(g7
S't\xd5x[/\x9b\x85?'
p40
tp41
Rp42
as.