(dp0
S'kunfav'
p1
(lp2
F-2.0
aF0.22815237582831138
acnumpy.core.multiarray
scalar
p3
(cnumpy
dtype
p4
(S'f8'
p5
I0
I1
tp6
Rp7
(I3
S'<'
p8
NNNI-1
I-1
I0
tp9
bS'\x02ZL]N-\xc1?'
p10
tp11
Rp12
asS'val'
p13
(lp14
F-2.0
aF0.344841775256354
ag3
(g7
S'V\xc1\xcc\x87\xfb\x1b\xab?'
p15
tp16
Rp17
asS'unfav'
p18
(lp19
F-2.0
aF0.22557803584059982
ag3
(g7
S'\xdf\xf0?;@\xb5\x8a?'
p20
tp21
Rp22
asS'fav'
p23
(lp24
F-2.0
aF0.22498214836790828
ag3
(g7
S'\xacGMdsX\x89?'
p25
tp26
Rp27
asS'kfav'
p28
(lp29
F-2.0
aF0.22448441109943876
ag3
(g7
S'\xbe\xcf+n.>\xbc?'
p30
tp31
Rp32
asS'sea'
p33
(lp34
F-2.0
aF0.17847614770236855
ag3
(g7
S'\x11+6\xf7\xbec\xc4?'
p35
tp36
Rp37
asS'gk0'
p38
(lp39
F-2.0
aF-0.2208924896023276
ag3
(g7
S'\x81A\xb5]\xa0r\x9d?'
p40
tp41
Rp42
as.