(dp0
S'kunfav'
p1
(lp2
F3.25
aF0.2678628372856116
acnumpy.core.multiarray
scalar
p3
(cnumpy
dtype
p4
(S'f8'
p5
I0
I1
tp6
Rp7
(I3
S'<'
p8
NNNI-1
I-1
I0
tp9
bS')\xc1&\xec\xef\x80\xc0?'
p10
tp11
Rp12
asS'val'
p13
(lp14
F3.25
aF0.32064011843912255
ag3
(g7
S'\xaa\xa7\x98x\xcc\xd4\xa7?'
p15
tp16
Rp17
asS'unfav'
p18
(lp19
F3.25
aF0.15875892389271692
ag3
(g7
S'\xf6\xbb#K\xcf\xdf\x83?'
p20
tp21
Rp22
asS'fav'
p23
(lp24
F3.25
aF0.1805455071413672
ag3
(g7
S'\x19m=\xf3X\x13\x7f?'
p25
tp26
Rp27
asS'kfav'
p28
(lp29
F3.25
aF0.2511772909976013
ag3
(g7
S'\xad\xc2h U3\xc1?'
p30
tp31
Rp32
asS'sea'
p33
(lp34
F3.25
aF0.27323641540102167
ag3
(g7
S'\xcez\x02\xd1@3\xc7?'
p35
tp36
Rp37
asS'gk0'
p38
(lp39
F3.25
aF-0.3019398187460109
ag3
(g7
S'\x83\xa8\xd8\xd2C\xa9\x92?'
p40
tp41
Rp42
as.