(dp0
S'kunfav'
p1
(lp2
F2.25
aF0.11340227075911012
acnumpy.core.multiarray
scalar
p3
(cnumpy
dtype
p4
(S'f8'
p5
I0
I1
tp6
Rp7
(I3
S'<'
p8
NNNI-1
I-1
I0
tp9
bS'M \x8fRG)\x87?'
p10
tp11
Rp12
asS'val'
p13
(lp14
F2.25
aF0.3321998063682406
ag3
(g7
S'\xa1\x96\xcd\x0c\xdd=\x9b?'
p15
tp16
Rp17
asS'unfav'
p18
(lp19
F2.25
aF0.1934416883356146
ag3
(g7
S'HUe\xd5\xd1iv?'
p20
tp21
Rp22
asS'fav'
p23
(lp24
F2.25
aF0.20641238493127176
ag3
(g7
S'\\[\x81<\x1fpr?'
p25
tp26
Rp27
asS'kfav'
p28
(lp29
F2.25
aF0.2314601736304472
ag3
(g7
S'b\x87ZM\x17\xb1\x84?'
p30
tp31
Rp32
asS'sea'
p33
(lp34
F2.25
aF0.3792387776655079
ag3
(g7
S'\xb8\xa2\x174\x82\xde\xb6?'
p35
tp36
Rp37
asS'gk0'
p38
(lp39
F2.25
aF-0.24453015895156635
ag3
(g7
S"\xda'+N\xf5\xfc\x86?"
p40
tp41
Rp42
as.