(dp0
S'kunfav'
p1
(lp2
F3.25
aF0.23945783054431155
acnumpy.core.multiarray
scalar
p3
(cnumpy
dtype
p4
(S'f8'
p5
I0
I1
tp6
Rp7
(I3
S'<'
p8
NNNI-1
I-1
I0
tp9
bS'\xbe\xcb\x86\x8c\xfd,\xc0?'
p10
tp11
Rp12
asS'val'
p13
(lp14
F3.25
aF0.2962226481490036
ag3
(g7
S'V\xb7\xd8)\x02\xdd\x9c?'
p15
tp16
Rp17
asS'unfav'
p18
(lp19
F3.25
aF0.20625744513640412
ag3
(g7
S'\xa5\xdc/\xa8M\x16w?'
p20
tp21
Rp22
asS'fav'
p23
(lp24
F3.25
aF0.21247799283618563
ag3
(g7
S'6Y(\x92\x1eys?'
p25
tp26
Rp27
asS'kfav'
p28
(lp29
F3.25
aF0.23915312638273098
ag3
(g7
S'\xfb\xac\x0c\xc1A,\xc1?'
p30
tp31
Rp32
asS'sea'
p33
(lp34
F3.25
aF0.22024829512794322
ag3
(g7
S'\xb1\xd7\xa5\xf2P\xd0\xb6?'
p35
tp36
Rp37
asS'gk0'
p38
(lp39
F3.25
aF-0.27742998010930675
ag3
(g7
S'v\xa1\xc4!\x01I\x8a?'
p40
tp41
Rp42
as.