(dp0
S'kunfav'
p1
(lp2
F-1.25
aF0.18908452539497564
acnumpy.core.multiarray
scalar
p3
(cnumpy
dtype
p4
(S'f8'
p5
I0
I1
tp6
Rp7
(I3
S'<'
p8
NNNI-1
I-1
I0
tp9
bS'\xee\xcf\x06\x89b\x17\xb5?'
p10
tp11
Rp12
asS'val'
p13
(lp14
F-1.25
aF0.34760989773586565
ag3
(g7
S'\x99\xac\x7f\x98\xa6\x84\x9c?'
p15
tp16
Rp17
asS'unfav'
p18
(lp19
F-1.25
aF0.19352729446573178
ag3
(g7
S'\x9f#S\x12\x95\x96w?'
p20
tp21
Rp22
asS'fav'
p23
(lp24
F-1.25
aF0.20242272871156905
ag3
(g7
S'3\x10\x8b\xa26Rs?'
p25
tp26
Rp27
asS'kfav'
p28
(lp29
F-1.25
aF0.16527330480298794
ag3
(g7
S'\xad\x91h\x90\xde\xec\x95?'
p30
tp31
Rp32
asS'sea'
p33
(lp34
F-1.25
aF0.3492636302789305
ag3
(g7
S'\xad\xd05\xb2@\x1f\xc0?'
p35
tp36
Rp37
asS'gk0'
p38
(lp39
F-1.25
aF-0.2315469288434893
ag3
(g7
S'[3\xf1i\xf7R\x87?'
p40
tp41
Rp42
as.