(dp0
S'kunfav'
p1
(lp2
F-1.5
aF0.14756843139875345
acnumpy.core.multiarray
scalar
p3
(cnumpy
dtype
p4
(S'f8'
p5
I0
I1
tp6
Rp7
(I3
S'<'
p8
NNNI-1
I-1
I0
tp9
bS'\xc0p2q\xa5\x19\xba?'
p10
tp11
Rp12
asS'val'
p13
(lp14
F-1.5
aF0.35045595111128675
ag3
(g7
S'\xa5\x0c%\xfe\x16\xc2\xa0?'
p15
tp16
Rp17
asS'unfav'
p18
(lp19
F-1.5
aF0.1955775172836761
ag3
(g7
S'\xf2\xa5eM\xb1\x9b{?'
p20
tp21
Rp22
asS'fav'
p23
(lp24
F-1.5
aF0.20461094693219492
ag3
(g7
S'\x02S\xcaM\xf2\xb0z?'
p25
tp26
Rp27
asS'kfav'
p28
(lp29
F-1.5
aF0.1378246555779389
ag3
(g7
S'\x7fy\xb3}uC\x9c?'
p30
tp31
Rp32
asS'sea'
p33
(lp34
F-1.5
aF0.23016609097316568
ag3
(g7
S'ePn\xe5Z\xac\xb9?'
p35
tp36
Rp37
asS'gk0'
p38
(lp39
F-1.5
aF-0.26018765297983815
ag3
(g7
S'\x14\n\xed\xa5\x97A\x8b?'
p40
tp41
Rp42
as.