(dp0
S'Q0'
p1
(lp2
F1.25
aF1.8482944825258434
acnumpy.core.multiarray
scalar
p3
(cnumpy
dtype
p4
(S'f8'
p5
I0
I1
tp6
Rp7
(I3
S'<'
p8
NNNI-1
I-1
I0
tp9
bS'G\x94g)\xae|\xfe?'
p10
tp11
Rp12
asS'kunfav'
p13
(lp14
F1.25
aF0.13082247972776928
ag3
(g7
S'\xb1\xc3\x1e\x9b\xa2\xd2\x87?'
p15
tp16
Rp17
asS'sea'
p18
(lp19
F1.25
aF0.4624457304971694
ag3
(g7
S'J\xc6\xe3\xa9iZ\xbc?'
p20
tp21
Rp22
asS'val'
p23
(lp24
F1.25
aF0.2738889760216835
ag3
(g7
S't\xaf\xb9N\x8eN\xa2?'
p25
tp26
Rp27
asS'gk0'
p28
(lp29
F1.25
aF-0.05465300910561272
ag3
(g7
S'\xac\x16\x02\xfdp\x7f\x8e?'
p30
tp31
Rp32
asS'unfav'
p33
(lp34
F1.25
aF0.20601430246510605
ag3
(g7
S'f\xb8\xf1\x00\x92\xf9y?'
p35
tp36
Rp37
asS'fav'
p38
(lp39
F1.25
aF0.21875694515049418
ag3
(g7
S'\xc1\xab\xdc\xf3e\x16u?'
p40
tp41
Rp42
asS'kfav'
p43
(lp44
F1.25
aF0.24751403289363563
ag3
(g7
S'\xfa\xec+w*\t\x84?'
p45
tp46
Rp47
as.