(dp0
S'Q0'
p1
(lp2
F3.0
aF1.8877969289143368
acnumpy.core.multiarray
scalar
p3
(cnumpy
dtype
p4
(S'f8'
p5
I0
I1
tp6
Rp7
(I3
S'<'
p8
NNNI-1
I-1
I0
tp9
bS'\xc5\xdfN~WB\xff?'
p10
tp11
Rp12
asS'kunfav'
p13
(lp14
F3.0
aF0.2923341383817338
ag3
(g7
S'\x80\xf4\xb5\xab\xf46\xb8?'
p15
tp16
Rp17
asS'sea'
p18
(lp19
F3.0
aF0.308014963222749
ag3
(g7
S'\xf9\x02\xe9&\xc6D\xc0?'
p20
tp21
Rp22
asS'val'
p23
(lp24
F3.0
aF0.24776859611805216
ag3
(g7
S'\xe5(\x1b\xb2\xe3\x86\xa4?'
p25
tp26
Rp27
asS'gk0'
p28
(lp29
F3.0
aF-0.0626594412331933
ag3
(g7
S'\x8a \xde\x01+\x80\x91?'
p30
tp31
Rp32
asS'unfav'
p33
(lp34
F3.0
aF0.21580729791485762
ag3
(g7
S'/\xb7\x9e!\x0e\xd9}?'
p35
tp36
Rp37
asS'fav'
p38
(lp39
F3.0
aF0.2234529890981682
ag3
(g7
S'\x1a\xd5\xb8\xc0\xc3\x99w?'
p40
tp41
Rp42
asS'kfav'
p43
(lp44
F3.0
aF0.30040745619418013
ag3
(g7
S'\x7fZ2\xa0\x8b\x94\x91?'
p45
tp46
Rp47
as.