(dp0
S'kunfav'
p1
(lp2
F2.75
aF0.12419470025032192
acnumpy.core.multiarray
scalar
p3
(cnumpy
dtype
p4
(S'f8'
p5
I0
I1
tp6
Rp7
(I3
S'<'
p8
NNNI-1
I-1
I0
tp9
bS'3$!_\x17\xfc\xa9?'
p10
tp11
Rp12
asS'val'
p13
(lp14
F2.75
aF0.36103325366765465
ag3
(g7
S'\xfc\xc9\xe0\xeb\x08\xcb\x98?'
p15
tp16
Rp17
asS'unfav'
p18
(lp19
F2.75
aF0.15214946287369316
ag3
(g7
S"\xbbV'\xf1v\xbet?"
p20
tp21
Rp22
asS'fav'
p23
(lp24
F2.75
aF0.16337872070855725
ag3
(g7
S'\xee\x19\xab+\x99\xf2o?'
p25
tp26
Rp27
asS'kfav'
p28
(lp29
F2.75
aF0.1558247594870715
ag3
(g7
S'\x17\x02\x90\x86\x91_\x8e?'
p30
tp31
Rp32
asS'sea'
p33
(lp34
F2.75
aF0.3999105963574394
ag3
(g7
S' m\xf6\x01\xce\xcf\xb3?'
p35
tp36
Rp37
asS'gk0'
p38
(lp39
F2.75
aF-0.27175406834493787
ag3
(g7
S'\x15Pf\xa1\xf0\x10\x82?'
p40
tp41
Rp42
as.