(dp0
S'kunfav'
p1
(lp2
F3.5
aF0.2550006309917613
acnumpy.core.multiarray
scalar
p3
(cnumpy
dtype
p4
(S'f8'
p5
I0
I1
tp6
Rp7
(I3
S'<'
p8
NNNI-1
I-1
I0
tp9
bS'\xde|\xe2\xa0\x0b\x86\xc0?'
p10
tp11
Rp12
asS'val'
p13
(lp14
F3.5
aF0.2387318229994146
ag3
(g7
S'3\xa1^\xc3\xee\xac\xa1?'
p15
tp16
Rp17
asS'unfav'
p18
(lp19
F3.5
aF0.2130469352534652
ag3
(g7
S'7\xd9WY\xb1\xeb~?'
p20
tp21
Rp22
asS'fav'
p23
(lp24
F3.5
aF0.22559714329240457
ag3
(g7
S'\xf9\xd1\xf6xX9z?'
p25
tp26
Rp27
asS'kfav'
p28
(lp29
F3.5
aF0.238411023547975
ag3
(g7
S'\x95\xe5\x8f\xdeL\x0f\xc1?'
p30
tp31
Rp32
asS'sea'
p33
(lp34
F3.5
aF0.2906346265706381
ag3
(g7
S'\x7f\x0f\x8c\xa7\xfbI\xc2?'
p35
tp36
Rp37
asS'gk0'
p38
(lp39
F3.5
aF-0.32296140131752293
ag3
(g7
S'-\xbb`\xbfi\\\x90?'
p40
tp41
Rp42
as.