(dp0
S'Q0'
p1
(lp2
F1.25
aF1.4771269097323645
acnumpy.core.multiarray
scalar
p3
(cnumpy
dtype
p4
(S'f8'
p5
I0
I1
tp6
Rp7
(I3
S'<'
p8
NNNI-1
I-1
I0
tp9
bS'C\xe6\x86\xf7\x9e\x87\xf9?'
p10
tp11
Rp12
asS'kunfav'
p13
(lp14
F1.25
aF0.19241698594268083
ag3
(g7
S'\x1b\x16\x05;\xcc\x16\x8c?'
p15
tp16
Rp17
asS'sea'
p18
(lp19
F1.25
aF0.6376749878391614
ag3
(g7
S'\x06\xf70\xd4\x7f,\xac?'
p20
tp21
Rp22
asS'val'
p23
(lp24
F1.25
aF0.5473437224260354
ag3
(g7
S"\x1b/'L\x06\xa1\x8d?"
p25
tp26
Rp27
asS'gk0'
p28
(lp29
F1.25
aF-0.11843264702551141
ag3
(g7
S'8VH\xa7\xac\xd4u?'
p30
tp31
Rp32
asS'unfav'
p33
(lp34
F1.25
aF0.1407551575163389
ag3
(g7
S"' \xf3\xf1\xa7\xe5d?"
p35
tp36
Rp37
asS'fav'
p38
(lp39
F1.25
aF0.11929754050472463
ag3
(g7
S'<\x89]\x06I>\\?'
p40
tp41
Rp42
asS'kfav'
p43
(lp44
F1.25
aF0.1326980092459949
ag3
(g7
S'\x83\x04\x87\xb0F\xf8q?'
p45
tp46
Rp47
as.