(dp0
S'kunfav'
p1
(lp2
F3.5
aF0.24587661283668943
acnumpy.core.multiarray
scalar
p3
(cnumpy
dtype
p4
(S'f8'
p5
I0
I1
tp6
Rp7
(I3
S'<'
p8
NNNI-1
I-1
I0
tp9
bS'\xcc5}p\x15\xd4\xc0?'
p10
tp11
Rp12
asS'val'
p13
(lp14
F3.5
aF0.2620898687314361
ag3
(g7
S'<\x17p\xdd\x98\x80\xb2?'
p15
tp16
Rp17
asS'unfav'
p18
(lp19
F3.5
aF0.1602042184282021
ag3
(g7
S'\xdc\x89/\x90A-\x91?'
p20
tp21
Rp22
asS'fav'
p23
(lp24
F3.5
aF0.18955819223317516
ag3
(g7
S'\x14\xc5\xecA\xe7\x86\x8e?'
p25
tp26
Rp27
asS'kfav'
p28
(lp29
F3.5
aF0.2502784058911131
ag3
(g7
S'\xca%\\N\x80i\xc1?'
p30
tp31
Rp32
asS'sea'
p33
(lp34
F3.5
aF0.47362226178848077
ag3
(g7
S'\xfc\x8by\rK\xa2\xcd?'
p35
tp36
Rp37
asS'gk0'
p38
(lp39
F3.5
aF-0.3479135291841499
ag3
(g7
S'0\xdf\xa0\x0c\x0c\x81\x9d?'
p40
tp41
Rp42
as.