(dp0
S'kunfav'
p1
(lp2
F1.5
aF0.1885094599599654
acnumpy.core.multiarray
scalar
p3
(cnumpy
dtype
p4
(S'f8'
p5
I0
I1
tp6
Rp7
(I3
S'<'
p8
NNNI-1
I-1
I0
tp9
bS'\xa1!\x87\xa6\xc9\xf5\x8c?'
p10
tp11
Rp12
asS'val'
p13
(lp14
F1.5
aF0.5457508675450758
ag3
(g7
S'`\x02\xf3$m4\x8f?'
p15
tp16
Rp17
asS'unfav'
p18
(lp19
F1.5
aF0.1405379849064054
ag3
(g7
S'UQ\x1b\xae\x92\x99e?'
p20
tp21
Rp22
asS'fav'
p23
(lp24
F1.5
aF0.12082169030924916
ag3
(g7
S'\xadxv\x1f\x93E`?'
p25
tp26
Rp27
asS'kfav'
p28
(lp29
F1.5
aF0.1330053685379094
ag3
(g7
S'Z$\x06(1\x8cs?'
p30
tp31
Rp32
asS'sea'
p33
(lp34
F1.5
aF0.6217690760080498
ag3
(g7
S'\x02\x88.\x94A\xe5\xaa?'
p35
tp36
Rp37
asS'gk0'
p38
(lp39
F1.5
aF-0.2700127162215433
ag3
(g7
S'\x01\x99\x19d\xa7[y?'
p40
tp41
Rp42
as.