(dp0
S'kunfav'
p1
(lp2
F2.5
aF0.10846888539803927
acnumpy.core.multiarray
scalar
p3
(cnumpy
dtype
p4
(S'f8'
p5
I0
I1
tp6
Rp7
(I3
S'<'
p8
NNNI-1
I-1
I0
tp9
bS'\xec\xd4\n\xbc\xd3\xe9\x98?'
p10
tp11
Rp12
asS'val'
p13
(lp14
F2.5
aF0.40908223849488384
ag3
(g7
S'\x9bR\xda\x7f\xb6T\x93?'
p15
tp16
Rp17
asS'unfav'
p18
(lp19
F2.5
aF0.15167594750563837
ag3
(g7
S'\xab\x07\xbc\x88tyq?'
p20
tp21
Rp22
asS'fav'
p23
(lp24
F2.5
aF0.15325140506431903
ag3
(g7
S'\xf1\rC\xdb\xe1\xa6j?'
p25
tp26
Rp27
asS'kfav'
p28
(lp29
F2.5
aF0.14204050609801674
ag3
(g7
S'\x19\x10\xbdf\x02f\x84?'
p30
tp31
Rp32
asS'sea'
p33
(lp34
F2.5
aF0.5333257876997165
ag3
(g7
S'Q\xa2\x0cd\x01D\xaf?'
p35
tp36
Rp37
asS'gk0'
p38
(lp39
F2.5
aF-0.27950200609863046
ag3
(g7
S'@\x19\xaf\xa3\xb5T\x7f?'
p40
tp41
Rp42
as.