(dp0
S'kunfav'
p1
(lp2
F-1.0
aF0.17415473665447906
acnumpy.core.multiarray
scalar
p3
(cnumpy
dtype
p4
(S'f8'
p5
I0
I1
tp6
Rp7
(I3
S'<'
p8
NNNI-1
I-1
I0
tp9
bS'\xb3\xb0I s#\xaa?'
p10
tp11
Rp12
asS'val'
p13
(lp14
F-1.0
aF0.2719453229985239
ag3
(g7
S'q9\xcd\x8bI\x04\x97?'
p15
tp16
Rp17
asS'unfav'
p18
(lp19
F-1.0
aF0.19323103665478442
ag3
(g7
S'\x93\x86L\x9c2\x9bu?'
p20
tp21
Rp22
asS'fav'
p23
(lp24
F-1.0
aF0.20540437793509322
ag3
(g7
S';\xb0\x01\xa8{\xbaq?'
p25
tp26
Rp27
asS'kfav'
p28
(lp29
F-1.0
aF0.1947859574990733
ag3
(g7
S'F\xb8\x8b\x0b:\x9c\x91?'
p30
tp31
Rp32
asS'sea'
p33
(lp34
F-1.0
aF0.4705395474585411
ag3
(g7
S'\x92H\x98bQ\xde\xbf?'
p35
tp36
Rp37
asS'gk0'
p38
(lp39
F-1.0
aF-0.25146090074130506
ag3
(g7
S'=u\x84\xe0\xb1\xe9\x82?'
p40
tp41
Rp42
as.