(dp0
S'Q0'
p1
(lp2
F1.5
aF1.4748418393731753
acnumpy.core.multiarray
scalar
p3
(cnumpy
dtype
p4
(S'f8'
p5
I0
I1
tp6
Rp7
(I3
S'<'
p8
NNNI-1
I-1
I0
tp9
bS'\xb5\xea\xfa\x08\xcc|\xf9?'
p10
tp11
Rp12
asS'kunfav'
p13
(lp14
F1.5
aF0.18135721910808325
ag3
(g7
S'\xb9\x07\x94\r\xbb\xbf\x8d?'
p15
tp16
Rp17
asS'sea'
p18
(lp19
F1.5
aF0.632384577373243
ag3
(g7
S'\x83-\x03q\xba@\xab?'
p20
tp21
Rp22
asS'val'
p23
(lp24
F1.5
aF0.5318916495002907
ag3
(g7
S'\x83\x85:}\xb4\xb5\x8e?'
p25
tp26
Rp27
asS'gk0'
p28
(lp29
F1.5
aF-0.1180719830588011
ag3
(g7
S'\xb9\x96\xdaIe"v?'
p30
tp31
Rp32
asS'unfav'
p33
(lp34
F1.5
aF0.14218868123532274
ag3
(g7
S'\x00\x0b\x9d\x1f\x7f\x19f?'
p35
tp36
Rp37
asS'fav'
p38
(lp39
F1.5
aF0.12172119713908615
ag3
(g7
S'\xb5{c\x05\xc5\xc9_?'
p40
tp41
Rp42
asS'kfav'
p43
(lp44
F1.5
aF0.13190455879046822
ag3
(g7
S'\x9ax%\xb5\xe1\xabr?'
p45
tp46
Rp47
as.