(dp0
S'kunfav'
p1
(lp2
F-0.75
aF0.13953903040542653
acnumpy.core.multiarray
scalar
p3
(cnumpy
dtype
p4
(S'f8'
p5
I0
I1
tp6
Rp7
(I3
S'<'
p8
NNNI-1
I-1
I0
tp9
bS'\xef\x8e\xd7:h_\x9d?'
p10
tp11
Rp12
asS'val'
p13
(lp14
F-0.75
aF0.31051625779712566
ag3
(g7
S'\xb1\x91\\\x86l\xe8\x94?'
p15
tp16
Rp17
asS'unfav'
p18
(lp19
F-0.75
aF0.18835671738827145
ag3
(g7
S"'r+\xf8^Vs?"
p20
tp21
Rp22
asS'fav'
p23
(lp24
F-0.75
aF0.19408204379789373
ag3
(g7
S'S\xc0U\xa8\xc31o?'
p25
tp26
Rp27
asS'kfav'
p28
(lp29
F-0.75
aF0.2018048226925685
ag3
(g7
S'`\\\x8cj\x0c\xf8\x87?'
p30
tp31
Rp32
asS'sea'
p33
(lp34
F-0.75
aF0.4787545509877959
ag3
(g7
S'\xfc\x1fI\xc7\x14\x83\xb6?'
p35
tp36
Rp37
asS'gk0'
p38
(lp39
F-0.75
aF-0.25884086585940563
ag3
(g7
S'lI\xb7\x85\x7f_\x80?'
p40
tp41
Rp42
as.