(dp0
S'kunfav'
p1
(lp2
F2.25
aF0.12511025217265268
acnumpy.core.multiarray
scalar
p3
(cnumpy
dtype
p4
(S'f8'
p5
I0
I1
tp6
Rp7
(I3
S'<'
p8
NNNI-1
I-1
I0
tp9
bS'-{\xc1A>\xc4\x94?'
p10
tp11
Rp12
asS'val'
p13
(lp14
F2.25
aF0.44350103613566993
ag3
(g7
S' \xf4 \xab\x90\xa4\x90?'
p15
tp16
Rp17
asS'unfav'
p18
(lp19
F2.25
aF0.15431698378471478
ag3
(g7
S'4y\x05^\xd1Ap?'
p20
tp21
Rp22
asS'fav'
p23
(lp24
F2.25
aF0.1415879767191491
ag3
(g7
S'f\x91D\xcc\xe8je?'
p25
tp26
Rp27
asS'kfav'
p28
(lp29
F2.25
aF0.13566950075068201
ag3
(g7
S'%)|L\xd2c\x81?'
p30
tp31
Rp32
asS'sea'
p33
(lp34
F2.25
aF0.5602489802408545
ag3
(g7
S'\x146$\rX}\xad?'
p35
tp36
Rp37
asS'gk0'
p38
(lp39
F2.25
aF-0.27143418504109923
ag3
(g7
S'N@%\xa0\x0b\xa3|?'
p40
tp41
Rp42
as.