(dp0
S'kunfav'
p1
(lp2
F-0.5
aF0.12010048749572443
acnumpy.core.multiarray
scalar
p3
(cnumpy
dtype
p4
(S'f8'
p5
I0
I1
tp6
Rp7
(I3
S'<'
p8
NNNI-1
I-1
I0
tp9
bS'\xad\xb9Y\xffS\xae\x94?'
p10
tp11
Rp12
asS'val'
p13
(lp14
F-0.5
aF0.3107001924437557
ag3
(g7
S'2\xea\x14\xb1\x95h\x93?'
p15
tp16
Rp17
asS'unfav'
p18
(lp19
F-0.5
aF0.18772703980819253
ag3
(g7
S'\x87\xc8_\xc6\xe1Sr?'
p20
tp21
Rp22
asS'fav'
p23
(lp24
F-0.5
aF0.19053864458940123
ag3
(g7
S'\x84\x17vZ\xe0]k?'
p25
tp26
Rp27
asS'kfav'
p28
(lp29
F-0.5
aF0.1943527671762882
ag3
(g7
S'm^.\xbb3\x14\x85?'
p30
tp31
Rp32
asS'sea'
p33
(lp34
F-0.5
aF0.4931910043493315
ag3
(g7
S'\x00\xe9\xdb\xd4\x11Q\xb4?'
p35
tp36
Rp37
asS'gk0'
p38
(lp39
F-0.5
aF-0.26703511452145456
ag3
(g7
S'3\x1e0<t\xdf}?'
p40
tp41
Rp42
as.