(dp0
S'Q0'
p1
(lp2
F3.0
aF1.8191863046482428
acnumpy.core.multiarray
scalar
p3
(cnumpy
dtype
p4
(S'f8'
p5
I0
I1
tp6
Rp7
(I3
S'<'
p8
NNNI-1
I-1
I0
tp9
bS'\x83w\xa0\xd1\x96\x83\xfe?'
p10
tp11
Rp12
asS'kunfav'
p13
(lp14
F3.0
aF0.287826544194388
ag3
(g7
S'\xc8\x93\xbd\xc4F\x8f\xbc?'
p15
tp16
Rp17
asS'sea'
p18
(lp19
F3.0
aF0.3863825356257357
ag3
(g7
S'X\xc6\x0b\x9c\x87\x83\xc2?'
p20
tp21
Rp22
asS'val'
p23
(lp24
F3.0
aF0.3016745940025151
ag3
(g7
S'RF\xd1-\xe5\xe6\xa3?'
p25
tp26
Rp27
asS'gk0'
p28
(lp29
F3.0
aF-0.08585343077083975
ag3
(g7
S'\xb0\x0e\xf2\xa4\xeb\x90\x8e?'
p30
tp31
Rp32
asS'unfav'
p33
(lp34
F3.0
aF0.16646453586095938
ag3
(g7
S'\xbf\xbf\xf33\x0b8\x80?'
p35
tp36
Rp37
asS'fav'
p38
(lp39
F3.0
aF0.1833090814525585
ag3
(g7
S"'\xfc\x99\r\xfe5y?"
p40
tp41
Rp42
asS'kfav'
p43
(lp44
F3.0
aF0.17015074431908897
ag3
(g7
S'\xb0\xd4\x94\xd1/\xff\x9c?'
p45
tp46
Rp47
as.