(dp0
S'kunfav'
p1
(lp2
F1.75
aF0.12465368465763287
acnumpy.core.multiarray
scalar
p3
(cnumpy
dtype
p4
(S'f8'
p5
I0
I1
tp6
Rp7
(I3
S'<'
p8
NNNI-1
I-1
I0
tp9
bS'\x0e\xd2>\xe0\x86|\x86?'
p10
tp11
Rp12
asS'val'
p13
(lp14
F1.75
aF0.3360378688461356
ag3
(g7
S'\xb1,D\x85 ?\x9a?'
p15
tp16
Rp17
asS'unfav'
p18
(lp19
F1.75
aF0.19389564102303233
ag3
(g7
S'a\xb0\xda\x12\x80\xe9u?'
p20
tp21
Rp22
asS'fav'
p23
(lp24
F1.75
aF0.2064955884056568
ag3
(g7
S'I\xdbkn\x0f)r?'
p25
tp26
Rp27
asS'kfav'
p28
(lp29
F1.75
aF0.23039192045656448
ag3
(g7
S'\xc0!\xd2@\xf8m\x81?'
p30
tp31
Rp32
asS'sea'
p33
(lp34
F1.75
aF0.34877671802525034
ag3
(g7
S'*"\xbc\xf8\x10\xa5\xb5?'
p35
tp36
Rp37
asS'gk0'
p38
(lp39
F1.75
aF-0.2414912671768332
ag3
(g7
S'\x08\xd9\xe2\x1d\xb2\xd3\x86?'
p40
tp41
Rp42
as.