(dp0
S'kunfav'
p1
(lp2
F2.0
aF0.17463236461791512
acnumpy.core.multiarray
scalar
p3
(cnumpy
dtype
p4
(S'f8'
p5
I0
I1
tp6
Rp7
(I3
S'<'
p8
NNNI-1
I-1
I0
tp9
bS'@\xe2\x8b\xf5\xbc\xdb\x92?'
p10
tp11
Rp12
asS'val'
p13
(lp14
F2.0
aF0.5043113938527726
ag3
(g7
S'5_\xb5\x11\xde\xc1\x90?'
p15
tp16
Rp17
asS'unfav'
p18
(lp19
F2.0
aF0.15082451739920855
ag3
(g7
S'qXv\xdc\x91\xc8m?'
p20
tp21
Rp22
asS'fav'
p23
(lp24
F2.0
aF0.12662003774745903
ag3
(g7
S'H\xc9\xcb\x90h\xefb?'
p25
tp26
Rp27
asS'kfav'
p28
(lp29
F2.0
aF0.13496031680465212
ag3
(g7
S'q\xe4g\x97\x15\xd7|?'
p30
tp31
Rp32
asS'sea'
p33
(lp34
F2.0
aF0.5790661227895629
ag3
(g7
S'\xbcU\xdd\x7f\xeb\x99\xab?'
p35
tp36
Rp37
asS'gk0'
p38
(lp39
F2.0
aF-0.27282892289602584
ag3
(g7
S'\xbe3\xff\xc2\xb3\x94z?'
p40
tp41
Rp42
as.