(dp0
S'Q0'
p1
(lp2
F1.75
aF1.8508292517944767
acnumpy.core.multiarray
scalar
p3
(cnumpy
dtype
p4
(S'f8'
p5
I0
I1
tp6
Rp7
(I3
S'<'
p8
NNNI-1
I-1
I0
tp9
bS'DST\xc8\xb8\x86\xfe?'
p10
tp11
Rp12
asS'kunfav'
p13
(lp14
F1.75
aF0.13090086931947498
ag3
(g7
S'\xc0\x1c\x014]\xe4\x87?'
p15
tp16
Rp17
asS'sea'
p18
(lp19
F1.75
aF0.45872027887927724
ag3
(g7
S'\xa7q\xea\x8a\xf5\xb3\xbb?'
p20
tp21
Rp22
asS'val'
p23
(lp24
F1.75
aF0.27338532727483467
ag3
(g7
S'\x07\xe9iwo\x85\xa2?'
p25
tp26
Rp27
asS'gk0'
p28
(lp29
F1.75
aF-0.05418478958951124
ag3
(g7
S'\xbf^\x91\xdf\xd2\x91\x8e?'
p30
tp31
Rp32
asS'unfav'
p33
(lp34
F1.75
aF0.2062787964322552
ag3
(g7
S'PE\x8fv|\x03z?'
p35
tp36
Rp37
asS'fav'
p38
(lp39
F1.75
aF0.2186584115818434
ag3
(g7
S'\xecS\x11\xe2\x0b\x0bu?'
p40
tp41
Rp42
asS'kfav'
p43
(lp44
F1.75
aF0.24732956308854112
ag3
(g7
S'\xae\x1f\xbf\xb8\x9a\xf5\x83?'
p45
tp46
Rp47
as.