(dp0
S'kunfav'
p1
(lp2
F1.25
aF0.19610518891673018
acnumpy.core.multiarray
scalar
p3
(cnumpy
dtype
p4
(S'f8'
p5
I0
I1
tp6
Rp7
(I3
S'<'
p8
NNNI-1
I-1
I0
tp9
bS'\t\xa1?m\x98\xfd\x8c?'
p10
tp11
Rp12
asS'val'
p13
(lp14
F1.25
aF0.5703079909294734
ag3
(g7
S'\x8a\x13\xa3e\xd3\xb0\x8c?'
p15
tp16
Rp17
asS'unfav'
p18
(lp19
F1.25
aF0.13802580548058427
ag3
(g7
S'LX\xda%\xfb&d?'
p20
tp21
Rp22
asS'fav'
p23
(lp24
F1.25
aF0.1171018825761134
ag3
(g7
S'\xa8\x98m\xc1\x8a\xa9[?'
p25
tp26
Rp27
asS'kfav'
p28
(lp29
F1.25
aF0.13231798088332047
ag3
(g7
S'\xc4\xc5\x87%\x89\x99q?'
p30
tp31
Rp32
asS'sea'
p33
(lp34
F1.25
aF0.6372242239156908
ag3
(g7
S'\xa6UX\x8bQ\xfd\xab?'
p35
tp36
Rp37
asS'gk0'
p38
(lp39
F1.25
aF-0.2706878508962867
ag3
(g7
S'\x95W\xc6tl z?'
p40
tp41
Rp42
as.