(dp0
S'kunfav'
p1
(lp2
F3.0
aF0.30678534542046815
acnumpy.core.multiarray
scalar
p3
(cnumpy
dtype
p4
(S'f8'
p5
I0
I1
tp6
Rp7
(I3
S'<'
p8
NNNI-1
I-1
I0
tp9
bS'pR\\UD\xd6\xbb?'
p10
tp11
Rp12
asS'val'
p13
(lp14
F3.0
aF0.3475157397309489
ag3
(g7
S'q\x03\x18\xdc\xd0#\xa0?'
p15
tp16
Rp17
asS'unfav'
p18
(lp19
F3.0
aF0.1523348780611059
ag3
(g7
S'G\xe49_\xab\xa9x?'
p20
tp21
Rp22
asS'fav'
p23
(lp24
F3.0
aF0.17158102203231124
ag3
(g7
S'\x82\xf5\xc9h1`t?'
p25
tp26
Rp27
asS'kfav'
p28
(lp29
F3.0
aF0.15686575101212877
ag3
(g7
S'\xc7\x865\xfc\xb6\t\x9b?'
p30
tp31
Rp32
asS'sea'
p33
(lp34
F3.0
aF0.2829201241524573
ag3
(g7
S'\xdeq\xd5\xd1\x18.\xbb?'
p35
tp36
Rp37
asS'gk0'
p38
(lp39
F3.0
aF-0.2810038886991909
ag3
(g7
S'\x17\xe9#\xe7\x05g\x87?'
p40
tp41
Rp42
as.