(dp0
S'kunfav'
p1
(lp2
F1.25
aF0.12435174112874957
acnumpy.core.multiarray
scalar
p3
(cnumpy
dtype
p4
(S'f8'
p5
I0
I1
tp6
Rp7
(I3
S'<'
p8
NNNI-1
I-1
I0
tp9
bS'o\x16\x14\xb8\xe1<\x86?'
p10
tp11
Rp12
asS'val'
p13
(lp14
F1.25
aF0.33246439223394575
ag3
(g7
S'\xf7\xb2K\xe5\xe8\xf1\x9a?'
p15
tp16
Rp17
asS'unfav'
p18
(lp19
F1.25
aF0.19424252107234816
ag3
(g7
S'6\xfe\x00\x96U\xcfv?'
p20
tp21
Rp22
asS'fav'
p23
(lp24
F1.25
aF0.2068866832448011
ag3
(g7
S']S!1g\xbcr?'
p25
tp26
Rp27
asS'kfav'
p28
(lp29
F1.25
aF0.23072259081464516
ag3
(g7
S'\xee\x94z\xea=\x17\x83?'
p30
tp31
Rp32
asS'sea'
p33
(lp34
F1.25
aF0.35479603955582584
ag3
(g7
S'[\xa6\xc6\xf2\xe5\xba\xb5?'
p35
tp36
Rp37
asS'gk0'
p38
(lp39
F1.25
aF-0.24157622952290544
ag3
(g7
S'\xe2_R\xac\x1a\xf0\x87?'
p40
tp41
Rp42
as.