(dp0
S'kunfav'
p1
(lp2
F2.5
aF0.10292176338782441
acnumpy.core.multiarray
scalar
p3
(cnumpy
dtype
p4
(S'f8'
p5
I0
I1
tp6
Rp7
(I3
S'<'
p8
NNNI-1
I-1
I0
tp9
bS'a\xad\x03AtT\x90?'
p10
tp11
Rp12
asS'val'
p13
(lp14
F2.5
aF0.32842730628394434
ag3
(g7
S'\x06v"\x0c\xff\xb0\x9b?'
p15
tp16
Rp17
asS'unfav'
p18
(lp19
F2.5
aF0.19312294077120595
ag3
(g7
S'4\x94\x9a\xbb\x91\x12w?'
p20
tp21
Rp22
asS'fav'
p23
(lp24
F2.5
aF0.20699387598316507
ag3
(g7
S'O\xf9\xc9\x03e\xa5r?'
p25
tp26
Rp27
asS'kfav'
p28
(lp29
F2.5
aF0.239610831646349
ag3
(g7
S'\x10\x9b\xda\xe9\xc4\xdd\x86?'
p30
tp31
Rp32
asS'sea'
p33
(lp34
F2.5
aF0.3904745445026891
ag3
(g7
S']\x95\xe2\xba\xcb~\xba?'
p35
tp36
Rp37
asS'gk0'
p38
(lp39
F2.5
aF-0.24542292490535117
ag3
(g7
S'7\xe0\x8a\xbcQ\x90\x88?'
p40
tp41
Rp42
as.