(dp0
S'Q0'
p1
(lp2
F2.25
aF1.589218532623124
acnumpy.core.multiarray
scalar
p3
(cnumpy
dtype
p4
(S'f8'
p5
I0
I1
tp6
Rp7
(I3
S'<'
p8
NNNI-1
I-1
I0
tp9
bS'\xfd\xa3\xd6\xa5@\x11\xfb?'
p10
tp11
Rp12
asS'kunfav'
p13
(lp14
F2.25
aF0.12013487916290737
ag3
(g7
S'\xc5<\xe7\x80}\xe4\x95?'
p15
tp16
Rp17
asS'sea'
p18
(lp19
F2.25
aF0.5872039938963225
ag3
(g7
S'\xb2E\xb1\xcf\x82\x0c\xb0?'
p20
tp21
Rp22
asS'val'
p23
(lp24
F2.25
aF0.43070966376565023
ag3
(g7
S'\x1ai\x85\xfa\xff\xa3\x92?'
p25
tp26
Rp27
asS'gk0'
p28
(lp29
F2.25
aF-0.1023166758826396
ag3
(g7
S'\xa4\x1d\x03ry\xcb}?'
p30
tp31
Rp32
asS'unfav'
p33
(lp34
F2.25
aF0.15763535718711683
ag3
(g7
S'\x02\xcf\xfc=\xa5\xb3r?'
p35
tp36
Rp37
asS'fav'
p38
(lp39
F2.25
aF0.14205295489847639
ag3
(g7
S'\xd9\x8aw\xfe\x1b\x84g?'
p40
tp41
Rp42
asS'kfav'
p43
(lp44
F2.25
aF0.1378518192321985
ag3
(g7
S'\x9bN\x16\xef1\\\x81?'
p45
tp46
Rp47
as.