(dp0
S'Q0'
p1
(lp2
F3.5
aF2.005244195926458
acnumpy.core.multiarray
scalar
p3
(cnumpy
dtype
p4
(S'f8'
p5
I0
I1
tp6
Rp7
(I3
S'<'
p8
NNNI-1
I-1
I0
tp9
bS'\xec\xd5\x1f.\xaa3\x01@'
p10
tp11
Rp12
asS'kunfav'
p13
(lp14
F3.5
aF0.2515152856581788
ag3
(g7
S'8d\xd4y\xbfY\xc1?'
p15
tp16
Rp17
asS'sea'
p18
(lp19
F3.5
aF0.5008507958865003
ag3
(g7
S'1\xc6\x13\xb2\x127\xcd?'
p20
tp21
Rp22
asS'val'
p23
(lp24
F3.5
aF0.22174451014646673
ag3
(g7
S"\xc1m:\x87\xba'\xb8?"
p25
tp26
Rp27
asS'gk0'
p28
(lp29
F3.5
aF-0.1242247624411065
ag3
(g7
S'\x05\xf4\xa1\x1e\x01m\xa5?'
p30
tp31
Rp32
asS'unfav'
p33
(lp34
F3.5
aF0.17897345478579813
ag3
(g7
S']\x86\xc21?,\x98?'
p35
tp36
Rp37
asS'fav'
p38
(lp39
F3.5
aF0.19890464379161893
ag3
(g7
S'\x8d\x10B\xb2\xe9\x81\x95?'
p40
tp41
Rp42
asS'kfav'
p43
(lp44
F3.5
aF0.24938767854666236
ag3
(g7
S'M9\x03\xa2|G\xc1?'
p45
tp46
Rp47
as.