(dp0
S'Q0'
p1
(lp2
F2.75
aF1.8866665207258309
acnumpy.core.multiarray
scalar
p3
(cnumpy
dtype
p4
(S'f8'
p5
I0
I1
tp6
Rp7
(I3
S'<'
p8
NNNI-1
I-1
I0
tp9
bS'O\x8f4=\x02\x19\xff?'
p10
tp11
Rp12
asS'kunfav'
p13
(lp14
F2.75
aF0.16291193457605008
ag3
(g7
S'\xe0."M\xb2)\xa0?'
p15
tp16
Rp17
asS'sea'
p18
(lp19
F2.75
aF0.37341883037301116
ag3
(g7
S'R\x95\xb8\x17\x94\xe2\xbf?'
p20
tp21
Rp22
asS'val'
p23
(lp24
F2.75
aF0.2524966961413824
ag3
(g7
S'H\x10\xbf\xe6\xd8X\xa3?'
p25
tp26
Rp27
asS'gk0'
p28
(lp29
F2.75
aF-0.05423306884531458
ag3
(g7
S'\xf7)\xafAX\x13\x90?'
p30
tp31
Rp32
asS'unfav'
p33
(lp34
F2.75
aF0.21151686817457016
ag3
(g7
S'\x15>\x91\x85HV|?'
p35
tp36
Rp37
asS'fav'
p38
(lp39
F2.75
aF0.2221265575947544
ag3
(g7
S'\x04\x80\xcc\xd2\r.v?'
p40
tp41
Rp42
asS'kfav'
p43
(lp44
F2.75
aF0.2751164670936472
ag3
(g7
S'\x9a5\xd90\xb5o\x8b?'
p45
tp46
Rp47
as.