(dp0
S'Q0'
p1
(lp2
F2.75
aF1.8846817858237315
acnumpy.core.multiarray
scalar
p3
(cnumpy
dtype
p4
(S'f8'
p5
I0
I1
tp6
Rp7
(I3
S'<'
p8
NNNI-1
I-1
I0
tp9
bS'\xf4\xeb\xb0<jp\xff?'
p10
tp11
Rp12
asS'kunfav'
p13
(lp14
F2.75
aF0.12695745052873017
ag3
(g7
S'R\xaa\x12!WL\xa3?'
p15
tp16
Rp17
asS'sea'
p18
(lp19
F2.75
aF0.49081644663491614
ag3
(g7
S'\x03\x1e)a\xf9\x82\xb8?'
p20
tp21
Rp22
asS'val'
p23
(lp24
F2.75
aF0.28751997156214554
ag3
(g7
S'\x93\xb2\xddc\xe9I\x9a?'
p25
tp26
Rp27
asS'gk0'
p28
(lp29
F2.75
aF-0.07958281737981338
ag3
(g7
S'\x9b\x9f\xd8+\x90\x95\x83?'
p30
tp31
Rp32
asS'unfav'
p33
(lp34
F2.75
aF0.17094748924472533
ag3
(g7
S'\x9e\xa4\xfc\x90\xa5\xefv?'
p35
tp36
Rp37
asS'fav'
p38
(lp39
F2.75
aF0.17942906084226207
ag3
(g7
S'\x12\xfa\x1b\xfa\xe2 q?'
p40
tp41
Rp42
asS'kfav'
p43
(lp44
F2.75
aF0.17459680105888317
ag3
(g7
S'\xc3\xf1\xac\xa0x\x9c\x8d?'
p45
tp46
Rp47
as.