(dp0
S'Q0'
p1
(lp2
F1.75
aF1.4817480933299942
acnumpy.core.multiarray
scalar
p3
(cnumpy
dtype
p4
(S'f8'
p5
I0
I1
tp6
Rp7
(I3
S'<'
p8
NNNI-1
I-1
I0
tp9
bS'\r\xb7\x88\x95\x81\x9b\xf9?'
p10
tp11
Rp12
asS'kunfav'
p13
(lp14
F1.75
aF0.19303974658437284
ag3
(g7
S'\x89\x01W\xd3(\xc7\x92?'
p15
tp16
Rp17
asS'sea'
p18
(lp19
F1.75
aF0.6142229121372739
ag3
(g7
S'\xe7B3Yb\xe1\xab?'
p20
tp21
Rp22
asS'val'
p23
(lp24
F1.75
aF0.5229989832663909
ag3
(g7
S'\x7fy\xbd\xda\x93x\x8e?'
p25
tp26
Rp27
asS'gk0'
p28
(lp29
F1.75
aF-0.11866147712716375
ag3
(g7
S'\xc4\xc8}U[\x1bv?'
p30
tp31
Rp32
asS'unfav'
p33
(lp34
F1.75
aF0.14593566843196742
ag3
(g7
S'\xceD\x03\xd9Y\x0eh?'
p35
tp36
Rp37
asS'fav'
p38
(lp39
F1.75
aF0.1226007924220216
ag3
(g7
S'\xb8\x9b\xb94\x96T`?'
p40
tp41
Rp42
asS'kfav'
p43
(lp44
F1.75
aF0.12819627528050964
ag3
(g7
S'BK\xfe\x16m\xe0x?'
p45
tp46
Rp47
as.