(dp0
S'Q0'
p1
(lp2
F1.5
aF1.858145731755328
acnumpy.core.multiarray
scalar
p3
(cnumpy
dtype
p4
(S'f8'
p5
I0
I1
tp6
Rp7
(I3
S'<'
p8
NNNI-1
I-1
I0
tp9
bS'\xef%\x1e\xb7\xb5\xa1\xfe?'
p10
tp11
Rp12
asS'kunfav'
p13
(lp14
F1.5
aF0.1321958571047672
ag3
(g7
S'\xae\xa1"\xde\xa5\x12\x89?'
p15
tp16
Rp17
asS'sea'
p18
(lp19
F1.5
aF0.4627500103163744
ag3
(g7
S'\x0f]\x03\x1a\xabL\xbc?'
p20
tp21
Rp22
asS'val'
p23
(lp24
F1.5
aF0.2708342288129859
ag3
(g7
S'\xf2\xa6 \xf5\xfe\xfe\xa2?'
p25
tp26
Rp27
asS'gk0'
p28
(lp29
F1.5
aF-0.05363745604528597
ag3
(g7
S'\xb0\\<Y#h\x8e?'
p30
tp31
Rp32
asS'unfav'
p33
(lp34
F1.5
aF0.206475098311221
ag3
(g7
S'\xf8N4^\xc9\xdey?'
p35
tp36
Rp37
asS'fav'
p38
(lp39
F1.5
aF0.21898708459873617
ag3
(g7
S'-\x84\xe1\xe0\x9d\xd1u?'
p40
tp41
Rp42
asS'kfav'
p43
(lp44
F1.5
aF0.24721218183525165
ag3
(g7
S'>\xcb\xf0\x18R\xa6\x84?'
p45
tp46
Rp47
as.