(dp0
S'Q0'
p1
(lp2
F3.5
aF2.0072684664560194
acnumpy.core.multiarray
scalar
p3
(cnumpy
dtype
p4
(S'f8'
p5
I0
I1
tp6
Rp7
(I3
S'<'
p8
NNNI-1
I-1
I0
tp9
bS'\x1c)xp*\xff\x00@'
p10
tp11
Rp12
asS'kunfav'
p13
(lp14
F3.5
aF0.24268183209251198
ag3
(g7
S"\x9e'=v\xd2d\xc1?"
p15
tp16
Rp17
asS'sea'
p18
(lp19
F3.5
aF0.4221827254187942
ag3
(g7
S'\xa1\xc6h0\x05\xe5\xc7?'
p20
tp21
Rp22
asS'val'
p23
(lp24
F3.5
aF0.16054668246261436
ag3
(g7
S'\xe2uI\xdcM\x13\xa3?'
p25
tp26
Rp27
asS'gk0'
p28
(lp29
F3.5
aF-0.11153118640396167
ag3
(g7
S'\xab(\x89\xfd\xf6\x03\x96?'
p30
tp31
Rp32
asS'unfav'
p33
(lp34
F3.5
aF0.2324968126956004
ag3
(g7
S'b\xc0\xab\x0f\xde\x84\x83?'
p35
tp36
Rp37
asS'fav'
p38
(lp39
F3.5
aF0.24466152598804097
ag3
(g7
S'\x08\x9cK\xe3\x14\xd0~?'
p40
tp41
Rp42
asS'kfav'
p43
(lp44
F3.5
aF0.24377834784274566
ag3
(g7
S'\x1f\xb7\xb6L\x9c\xfc\xc0?'
p45
tp46
Rp47
as.