(dp0
S'Q0'
p1
(lp2
F2.5
aF1.849501154025691
acnumpy.core.multiarray
scalar
p3
(cnumpy
dtype
p4
(S'f8'
p5
I0
I1
tp6
Rp7
(I3
S'<'
p8
NNNI-1
I-1
I0
tp9
bS'\x8d\x12\x9e\xf4\xdb\xdb\xfe?'
p10
tp11
Rp12
asS'kunfav'
p13
(lp14
F2.5
aF0.12242159117512787
ag3
(g7
S'\xdb\x85[e/P\x97?'
p15
tp16
Rp17
asS'sea'
p18
(lp19
F2.5
aF0.5482662775602715
ag3
(g7
S'_\xb8\x16\x1d\xd8\xa9\xb2?'
p20
tp21
Rp22
asS'val'
p23
(lp24
F2.5
aF0.3293842502348796
ag3
(g7
S'\xfe\x98V\x0f\xac\xaf\x94?'
p25
tp26
Rp27
asS'gk0'
p28
(lp29
F2.5
aF-0.07859122173832016
ag3
(g7
S'\xdc\xa6\xdb\x15\xbc\x93\x81?'
p30
tp31
Rp32
asS'unfav'
p33
(lp34
F2.5
aF0.1712580960914489
ag3
(g7
S'\xaeQ\xb3\x85\r\xc9s?'
p35
tp36
Rp37
asS'fav'
p38
(lp39
F2.5
aF0.1679407477049089
ag3
(g7
S' \x1f@\xb3y\xb3m?'
p40
tp41
Rp42
asS'kfav'
p43
(lp44
F2.5
aF0.16247256058283735
ag3
(g7
S'\x87=\xd9,\x9f`\x84?'
p45
tp46
Rp47
as.